cExperiment.MetadataDataFrame
MetadataDataFrame
p1
(ccopy_reg
_reconstructor
p2
(cpandas.core.frame
DataFrame
p3
c__builtin__
object
p4
NtRp5
g2
(cpandas.core.internals
BlockManager
p6
g4
NtRp7
((lp8
cpandas.core.index
_new_Index
p9
(cpandas.core.index
Index
p10
(dp11
S'data'
p12
cnumpy.core.multiarray
_reconstruct
p13
(cnumpy
ndarray
p14
(I0
tS'b'
tRp15
(I1
(I40
tcnumpy
dtype
p16
(S'O8'
I0
I1
tRp17
(I3
S'|'
NNNI-1
I-1
I63
tbI00
(lp18
S'AUC'
p19
aS'Expected CTR'
p20
aS'Log Likelihood'
p21
aS'Mean Squared Error'
p22
aS'Precision Recall AUC'
p23
aS'Real CTR'
p24
aS'Relative Information Gain'
p25
aS'bit_precision'
p26
aS'clicker'
p27
aS'client_id'
p28
aS'client_id;inventory_source_id;position_id;size;url'
p29
aS'client_id;inventory_source_id;url'
p30
aS'client_id;placement_id'
p31
aS'client_id;position_id'
p32
aS'client_id;screen_size_id'
p33
aS'client_id;size'
p34
aS'client_id;visited_domains'
p35
aS'client_id;visited_logpoints'
p36
aS'ftrl'
p37
aS'ftrl_alpha'
p38
aS'ftrl_beta'
p39
aS'hash'
p40
aS'id'
p41
aS'inventory_source_id'
p42
aS'inventory_source_id;position_id;size;url'
p43
aS'inventory_source_id;url'
p44
aS'l1'
p45
aS'l2'
p46
aS'learner'
p47
aS'loss_function'
p48
aS'model'
p49
aS'nvd_normalized'
p50
aS'passes'
p51
aS'placement_id'
p52
aS'position_id'
p53
aS'quiet'
p54
aS'screen_size_id'
p55
aS'size'
p56
aS'sort_features'
p57
aS'visited_domains'
p58
atbsS'name'
p59
NstRp60
ag9
(cpandas.core.index
Int64Index
p61
(dp62
g12
g13
(g14
(I0
tS'b'
tRp63
(I1
(I4
tg16
(S'i8'
I0
I1
tRp64
(I3
S'<'
NNNI-1
I-1
I0
tbI00
S'\x00\x00\x00\x00\x00\x00\x00\x00\x01\x00\x00\x00\x00\x00\x00\x00\x02\x00\x00\x00\x00\x00\x00\x00\x03\x00\x00\x00\x00\x00\x00\x00'
tbsg59
NstRp65
a(lp66
g13
(g14
(I0
tS'b'
tRp67
(I1
(I7
I4
tg16
(S'f8'
I0
I1
tRp68
(I3
S'<'
NNNI-1
I-1
I0
tbI00
S'\xf9\xad\xe2~\x1f\xb8\xe7?$\x1d\xeb\xd7\x0c\xaf\xe7?\xbca\xc9\xd1\xf6\xa7\xe7?]\x13\xf6W\x83\xa1\xe7?\xe2\xa2\x99\'U\x1c\xb9?(\xd8\tx\xf3\x15\xb9?\x988\xa2\xcd\xf0\x13\xb9?\x9ai\xc2\xc3\x86\x12\xb9?$k\xfd\xf1D\xeb\xd0\xbf\x87\xe2\xa0-a\xed\xd0\xbf\xcff57\x02\xef\xd0\xbf8\xb12"k\xf0\xd0\xbf\tw\xe1\x9f\x184\xb2? \xf6\x95v\x047\xb2?\x08z\xb0Va9\xb2?^\xe7\xbdj\xbc;\xb2?tL\xdd\xdbH\xe8\xd9?\xa2\xeb+\xedL\xd0\xd9?\xdal\xe9\xfe\x91\xc2\xd9?}\x02\xcd\xc4f\xb2\xd9?C\xd3\x1d\xec\xb7\xda\xb8?C\xd3\x1d\xec\xb7\xda\xb8?C\xd3\x1d\xec\xb7\xda\xb8?C\xd3\x1d\xec\xb7\xda\xb8?\xd8j\xd8\xde\xa9\xcd\xc5?\xa0\x83A\xf5j\xc0\xc5?\xf7\x80zP1\xb6\xc5?x\x86V\xebW\xad\xc5?'
tbag13
(g14
(I0
tS'b'
tRp69
(I1
(I1
I4
tg68
I00
S'\x00\x00\x00\x00\x00\x00=@\x00\x00\x00\x00\x00\x00=@\x00\x00\x00\x00\x00\x00=@\x00\x00\x00\x00\x00\x00=@'
tbag13
(g14
(I0
tS'b'
tRp70
(I1
(I11
I4
tg17
I00
(lp71
S'present'
p72
ag72
ag72
ag72
ag72
ag72
ag72
ag72
ag72
ag72
ag72
ag72
ag72
ag72
ag72
ag72
ag72
ag72
ag72
ag72
ag72
ag72
ag72
ag72
ag72
ag72
ag72
ag72
ag72
ag72
ag72
ag72
ag72
ag72
ag72
ag72
ag72
ag72
ag72
ag72
aS''
aS''
aS''
aS''
atbag13
(g14
(I0
tS'b'
tRp73
(I1
(I2
I4
tg68
I00
S'\x97&-`\xb8\xca\xac?\x97&-`\xb8\xca\xac?\x97&-`\xb8\xca\xac?\x97&-`\xb8\xca\xac?\x00\x00\x00\x00\x00\x00\x00\x00\x00\x00\x00\x00\x00\x00\x00\x00\x00\x00\x00\x00\x00\x00\x00\x00\x00\x00\x00\x00\x00\x00\x00\x00'
tbag13
(g14
(I0
tS'b'
tRp74
(I1
(I1
I4
tg17
I00
(lp75
S'strings'
p76
aS'strings'
p77
aS'strings'
p78
aS'strings'
p79
atbag13
(g14
(I0
tS'b'
tRp80
(I1
(I1
I4
tg68
I00
S'\x00\x00\x00\x10\xffp\x89A\x00\x00\x00\xa8\xf6\xe6\x8fA\x00\x00\x00\x08\xdfd\x84A\x00\x00\x00 \x0b\x0euA'
tbag13
(g14
(I0
tS'b'
tRp81
(I1
(I3
I4
tg17
I00
(lp82
S'absent'
p83
ag83
ag83
ag83
ag72
ag72
ag72
ag72
ag72
ag72
ag72
ag72
atbag13
(g14
(I0
tS'b'
tRp84
(I1
(I1
I4
tg68
I00
S'\x00\x00\x00\x00\x00\x00&@\x00\x00\x00\x00\x00\x00(@\x00\x00\x00\x00\x00\x00*@\x00\x00\x00\x00\x00\x00,@'
tbag13
(g14
(I0
tS'b'
tRp85
(I1
(I1
I4
tg68
I00
S'\x00\x00\x00\x00\x00\x00\x00\x00\x00\x00\x00\x00\x00\x00\x00\x00\x00\x00\x00\x00\x00\x00\x00\x00\x00\x00\x00\x00\x00\x00\x00\x00'
tbag13
(g14
(I0
tS'b'
tRp86
(I1
(I4
I4
tg17
I00
(lp87
S'VW'
p88
ag88
ag88
ag88
aS'logistic'
p89
aS'logistic'
p90
aS'logistic'
p91
aS'logistic'
p92
aS'number of visited domains'
p93
ag93
ag93
ag93
ag72
ag72
ag72
ag72
atbag13
(g14
(I0
tS'b'
tRp94
(I1
(I1
I4
tg68
I00
S'\x00\x00\x00\x00\x00\x00\x1c@\x00\x00\x00\x00\x00\x00\x1c@\x00\x00\x00\x00\x00\x00\x1c@\x00\x00\x00\x00\x00\x00\x1c@'
tbag13
(g14
(I0
tS'b'
tRp95
(I1
(I7
I4
tg17
I00
(lp96
g83
ag83
ag83
ag83
ag72
ag72
ag72
ag72
aS''
aS''
aS''
aS''
ag72
ag72
ag72
ag72
ag72
ag72
ag72
ag72
aS''
aS''
aS''
aS''
ag83
ag83
ag83
ag83
atba(lp97
g9
(g10
(dp98
g12
g13
(g14
(I0
tS'b'
tRp99
(I1
(I7
tg17
I00
(lp100
g19
ag20
ag21
ag22
ag23
ag24
ag25
atbsg59
NstRp101
ag9
(g10
(dp102
g12
g13
(g14
(I0
tS'b'
tRp103
(I1
(I1
tg17
I00
(lp104
g26
atbsg59
NstRp105
ag9
(g10
(dp106
g12
g13
(g14
(I0
tS'b'
tRp107
(I1
(I11
tg17
I00
(lp108
g27
ag28
ag29
ag30
ag31
ag32
ag33
ag34
ag35
ag36
ag37
atbsg59
NstRp109
ag9
(g10
(dp110
g12
g13
(g14
(I0
tS'b'
tRp111
(I1
(I2
tg17
I00
(lp112
g38
ag39
atbsg59
NstRp113
ag9
(g10
(dp114
g12
g13
(g14
(I0
tS'b'
tRp115
(I1
(I1
tg17
I00
(lp116
g40
atbsg59
NstRp117
ag9
(g10
(dp118
g12
g13
(g14
(I0
tS'b'
tRp119
(I1
(I1
tg17
I00
(lp120
g41
atbsg59
NstRp121
ag9
(g10
(dp122
g12
g13
(g14
(I0
tS'b'
tRp123
(I1
(I3
tg17
I00
(lp124
g42
ag43
ag44
atbsg59
NstRp125
ag9
(g10
(dp126
g12
g13
(g14
(I0
tS'b'
tRp127
(I1
(I1
tg17
I00
(lp128
g45
atbsg59
NstRp129
ag9
(g10
(dp130
g12
g13
(g14
(I0
tS'b'
tRp131
(I1
(I1
tg17
I00
(lp132
g46
atbsg59
NstRp133
ag9
(g10
(dp134
g12
g13
(g14
(I0
tS'b'
tRp135
(I1
(I4
tg17
I00
(lp136
g47
ag48
ag49
ag50
atbsg59
NstRp137
ag9
(g10
(dp138
g12
g13
(g14
(I0
tS'b'
tRp139
(I1
(I1
tg17
I00
(lp140
g51
atbsg59
NstRp141
ag9
(g10
(dp142
g12
g13
(g14
(I0
tS'b'
tRp143
(I1
(I7
tg17
I00
(lp144
g52
ag53
ag54
ag55
ag56
ag57
ag58
atbsg59
NstRp145
a(dp146
S'0.14.1'
p147
(dp148
S'axes'
p149
g8
sS'blocks'
p150
(lp151
(dp152
S'mgr_locs'
p153
c__builtin__
slice
p154
(I0
I7
I1
tRp155
sS'values'
p156
g67
sa(dp157
g153
g154
(I7
I8
I1
tRp158
sg156
g69
sa(dp159
g153
g154
(I8
I19
I1
tRp160
sg156
g70
sa(dp161
g153
g154
(I19
I21
I1
tRp162
sg156
g73
sa(dp163
g153
g154
(I21
I22
I1
tRp164
sg156
g74
sa(dp165
g153
g154
(I22
I23
I1
tRp166
sg156
g80
sa(dp167
g153
g154
(I23
I26
I1
tRp168
sg156
g81
sa(dp169
g153
g154
(I26
I27
I1
tRp170
sg156
g84
sa(dp171
g153
g154
(I27
I28
I1
tRp172
sg156
g85
sa(dp173
g153
g154
(I28
I32
I1
tRp174
sg156
g86
sa(dp175
g153
g154
(I32
I33
I1
tRp176
sg156
g94
sa(dp177
g153
g154
(I33
I40
I1
tRp178
sg156
g95
sasstbbNN(dp179
S'metrics'
p180
(lp181
g19
ag20
ag24
ag23
ag21
ag22
ag25
asS'features'
p182
(lp183
g35
ag43
ag28
ag33
ag34
ag53
ag30
ag44
ag50
ag58
ag27
ag55
ag31
ag29
ag32
ag36
ag56
ag52
ag42
asS'learner_parameters'
p184
(lp185
g51
ag40
ag48
ag38
ag37
ag54
ag39
ag46
ag26
ag45
ag57
asS'model_names'
p186
(lp187
S'base_model'
p188
ag93
asS'learner_names'
p189
(lp190
g88
asNNI00
tRp191
.